target datalayout = "e-m:e-p270:32:32-p271:32:32-p272:64:64-i64:64-i128:128-f80:128-n8:16:32:64-S128"
target triple = "x86_64-pc-linux-gnu"

%struct.RelationData = type { %struct.RelFileLocator, ptr, i32, i32, i8, i8, i8, i8, i8, i32, i32, i32, i32, ptr, ptr, i32, %struct.LockInfoData, ptr, ptr, ptr, ptr, ptr, i8, ptr, ptr, ptr, ptr, ptr, ptr, i32, ptr, i8, ptr, ptr, i32, i8, i32, ptr, i8, ptr, ptr, ptr, ptr, ptr, ptr, ptr, i32, ptr, ptr, ptr, ptr, ptr, ptr, ptr, ptr, ptr, ptr, ptr, ptr, ptr, ptr, ptr, ptr, ptr, ptr, ptr, i32, i8, ptr }
%struct.RelFileLocator = type { i32, i32, i32 }
%struct.LockInfoData = type { %struct.LockRelId }
%struct.LockRelId = type { i32, i32 }
%struct.nameData = type { [64 x i8] }
%struct.FormData_pg_attribute = type { i32, %struct.nameData, i32, i16, i16, i32, i16, i8, i8, i8, i8, i8, i8, i8, i8, i8, i8, i8, i16, i32 }
%struct.TupleDescData = type { i32, i32, i32, i32, ptr, [0 x %struct.CompactAttribute] }
%struct.CompactAttribute = type { i32, i16, i8, i8, i8, i8, i8, i8, i8 }

; Function Attrs: inlinehint nounwind uwtable
define internal ptr @TupleDescAttr(ptr noundef %0, i32 noundef %1) #2 {
  %3 = alloca ptr, align 8
  %4 = alloca i32, align 4
  %5 = alloca ptr, align 8
  store ptr %0, ptr %3, align 8
  store i32 %1, ptr %4, align 4
  call void @llvm.lifetime.start.p0(i64 8, ptr %5) #7
  %6 = load ptr, ptr %3, align 8
  %7 = load ptr, ptr %3, align 8
  %8 = getelementptr inbounds nuw %struct.TupleDescData, ptr %7, i32 0, i32 0
  %9 = load i32, ptr %8, align 8
  %10 = sext i32 %9 to i64
  %11 = mul i64 %10, 16
  %12 = add i64 24, %11
  %13 = getelementptr inbounds nuw i8, ptr %6, i64 %12
  store ptr %13, ptr %5, align 8
  %14 = load ptr, ptr %5, align 8
  %15 = load i32, ptr %4, align 4
  %16 = sext i32 %15 to i64
  %17 = getelementptr inbounds %struct.FormData_pg_attribute, ptr %14, i64 %16
  call void @llvm.lifetime.end.p0(i64 8, ptr %5) #7
  ret ptr %17
}

; Function Attrs: nounwind uwtable
define dso_local ptr @pub_form_cols_map(ptr noundef %0, i32 noundef %1) #0 {
  %3 = alloca ptr, align 8
  %4 = alloca i32, align 4
  %5 = alloca ptr, align 8
  %6 = alloca ptr, align 8
  %7 = alloca i32, align 4
  %8 = alloca i32, align 4
  %9 = alloca ptr, align 8
  store ptr %0, ptr %3, align 8
  store i32 %1, ptr %4, align 4
  call void @llvm.lifetime.start.p0(i64 8, ptr %5) #7
  store ptr null, ptr %5, align 8
  call void @llvm.lifetime.start.p0(i64 8, ptr %6) #7
  %10 = load ptr, ptr %3, align 8
  %11 = getelementptr inbounds nuw %struct.RelationData, ptr %10, i32 0, i32 14
  %12 = load ptr, ptr %11, align 8
  store ptr %12, ptr %6, align 8
  call void @llvm.lifetime.start.p0(i64 4, ptr %7) #7
  store i32 0, ptr %7, align 4
  br label %13

13:                                               ; preds = %56, %2
  %14 = load i32, ptr %7, align 4
  %15 = load ptr, ptr %6, align 8
  %16 = getelementptr inbounds nuw %struct.TupleDescData, ptr %15, i32 0, i32 0
  %17 = load i32, ptr %16, align 8
  %18 = icmp slt i32 %14, %17
  br i1 %18, label %20, label %19

19:                                               ; preds = %13
  store i32 2, ptr %8, align 4
  call void @llvm.lifetime.end.p0(i64 4, ptr %7) #7
  br label %59

20:                                               ; preds = %13
  call void @llvm.lifetime.start.p0(i64 8, ptr %9) #7
  %21 = load ptr, ptr %6, align 8
  %22 = load i32, ptr %7, align 4
  %23 = call ptr @TupleDescAttr(ptr noundef %21, i32 noundef %22)
  store ptr %23, ptr %9, align 8
  %24 = load ptr, ptr %9, align 8
  %25 = getelementptr inbounds nuw %struct.FormData_pg_attribute, ptr %24, i32 0, i32 16
  %26 = load i8, ptr %25, align 1, !range !4, !noundef !5
  %27 = trunc i8 %26 to i1
  br i1 %27, label %28, label %29

28:                                               ; preds = %20
  store i32 4, ptr %8, align 4
  br label %53

29:                                               ; preds = %20
  %30 = load ptr, ptr %9, align 8
  %31 = getelementptr inbounds nuw %struct.FormData_pg_attribute, ptr %30, i32 0, i32 15
  %32 = load i8, ptr %31, align 2
  %33 = icmp ne i8 %32, 0
  br i1 %33, label %34, label %46

34:                                               ; preds = %29
  %35 = load ptr, ptr %9, align 8
  %36 = getelementptr inbounds nuw %struct.FormData_pg_attribute, ptr %35, i32 0, i32 15
  %37 = load i8, ptr %36, align 2
  %38 = sext i8 %37 to i32
  %39 = icmp ne i32 %38, 115
  br i1 %39, label %40, label %41

40:                                               ; preds = %34
  store i32 4, ptr %8, align 4
  br label %53

41:                                               ; preds = %34
  %42 = load i32, ptr %4, align 4
  %43 = icmp ne i32 %42, 115
  br i1 %43, label %44, label %45

44:                                               ; preds = %41
  store i32 4, ptr %8, align 4
  br label %53

45:                                               ; preds = %41
  br label %46

46:                                               ; preds = %45, %29
  %47 = load ptr, ptr %5, align 8
  %48 = load ptr, ptr %9, align 8
  %49 = getelementptr inbounds nuw %struct.FormData_pg_attribute, ptr %48, i32 0, i32 4
  %50 = load i16, ptr %49, align 2
  %51 = sext i16 %50 to i32
  %52 = call ptr @bms_add_member(ptr noundef %47, i32 noundef %51)
  store ptr %52, ptr %5, align 8
  store i32 0, ptr %8, align 4
  br label %53

53:                                               ; preds = %46, %44, %40, %28
  call void @llvm.lifetime.end.p0(i64 8, ptr %9) #7
  %54 = load i32, ptr %8, align 4
  switch i32 %54, label %61 [
    i32 0, label %55
    i32 4, label %56
  ]

55:                                               ; preds = %53
  br label %56

56:                                               ; preds = %55, %53
  %57 = load i32, ptr %7, align 4
  %58 = add i32 %57, 1
  store i32 %58, ptr %7, align 4
  br label %13, !llvm.loop !15

59:                                               ; preds = %19
  %60 = load ptr, ptr %5, align 8
  store i32 1, ptr %8, align 4
  call void @llvm.lifetime.end.p0(i64 8, ptr %6) #7
  call void @llvm.lifetime.end.p0(i64 8, ptr %5) #7
  ret ptr %60

61:                                               ; preds = %53
  unreachable
}