; Function Attrs: nounwind uwtable
define dso_local ptr @pub_form_cols_map(ptr noundef readonly captures(none) %0, i32 noundef %1) local_unnamed_addr #0 {
  %3 = getelementptr inbounds nuw i8, ptr %0, i64 64
  %4 = load ptr, ptr %3, align 8
  %invariant.gep = getelementptr i8, ptr %4, i64 24
  %5 = load i32, ptr %4, align 8
  %6 = icmp sgt i32 %5, 0
  br i1 %6, label %.lr.ph, label %._crit_edge

.lr.ph:                                           ; preds = %2
  %.not15 = icmp eq i32 %1, 115
  br i1 %.not15, label %.lr.ph.split.us, label %.lr.ph.split

.lr.ph.split.us:                                  ; preds = %.lr.ph, %22
  %7 = phi i32 [ %23, %22 ], [ %5, %.lr.ph ]
  %indvars.iv20 = phi i64 [ %indvars.iv.next21, %22 ], [ 0, %.lr.ph ]
  %.017.us = phi ptr [ %.1.us, %22 ], [ null, %.lr.ph ]
  %8 = sext i32 %7 to i64
  %9 = shl nsw i64 %8, 4
  %gep.us = getelementptr i8, ptr %invariant.gep, i64 %9
  %10 = getelementptr inbounds nuw %struct.FormData_pg_attribute, ptr %gep.us, i64 %indvars.iv20
  %11 = getelementptr inbounds nuw i8, ptr %10, i64 91
  %12 = load i8, ptr %11, align 1, !range !4, !noundef !5
  %13 = trunc nuw i8 %12 to i1
  br i1 %13, label %22, label %14

14:                                               ; preds = %.lr.ph.split.us
  %15 = getelementptr inbounds nuw i8, ptr %10, i64 90
  %16 = load i8, ptr %15, align 2
  switch i8 %16, label %22 [
    i8 0, label %17
    i8 115, label %17
  ]

17:                                               ; preds = %14, %14
  %18 = getelementptr inbounds nuw i8, ptr %10, i64 74
  %19 = load i16, ptr %18, align 2
  %20 = sext i16 %19 to i32
  %21 = tail call ptr @bms_add_member(ptr noundef %.017.us, i32 noundef %20) #6
  %.pre23 = load i32, ptr %4, align 8
  br label %22

22:                                               ; preds = %17, %14, %.lr.ph.split.us
  %23 = phi i32 [ %.pre23, %17 ], [ %7, %.lr.ph.split.us ], [ %7, %14 ]
  %.1.us = phi ptr [ %21, %17 ], [ %.017.us, %.lr.ph.split.us ], [ %.017.us, %14 ]
  %indvars.iv.next21 = add nuw nsw i64 %indvars.iv20, 1
  %24 = sext i32 %23 to i64
  %25 = icmp slt i64 %indvars.iv.next21, %24
  br i1 %25, label %.lr.ph.split.us, label %._crit_edge, !llvm.loop !12

._crit_edge:                                      ; preds = %41, %22, %2
  %.0.lcssa = phi ptr [ null, %2 ], [ %.1.us, %22 ], [ %.1, %41 ]
  ret ptr %.0.lcssa

.lr.ph.split:                                     ; preds = %.lr.ph, %41
  %26 = phi i32 [ %42, %41 ], [ %5, %.lr.ph ]
  %indvars.iv = phi i64 [ %indvars.iv.next, %41 ], [ 0, %.lr.ph ]
  %.017 = phi ptr [ %.1, %41 ], [ null, %.lr.ph ]
  %27 = sext i32 %26 to i64
  %28 = shl nsw i64 %27, 4
  %gep = getelementptr i8, ptr %invariant.gep, i64 %28
  %29 = getelementptr inbounds nuw %struct.FormData_pg_attribute, ptr %gep, i64 %indvars.iv
  %30 = getelementptr inbounds nuw i8, ptr %29, i64 91
  %31 = load i8, ptr %30, align 1, !range !4, !noundef !5
  %32 = trunc nuw i8 %31 to i1
  br i1 %32, label %41, label %33

33:                                               ; preds = %.lr.ph.split
  %34 = getelementptr inbounds nuw i8, ptr %29, i64 90
  %35 = load i8, ptr %34, align 2
  %cond = icmp eq i8 %35, 0
  br i1 %cond, label %36, label %41

36:                                               ; preds = %33
  %37 = getelementptr inbounds nuw i8, ptr %29, i64 74
  %38 = load i16, ptr %37, align 2
  %39 = sext i16 %38 to i32
  %40 = tail call ptr @bms_add_member(ptr noundef %.017, i32 noundef %39) #6
  %.pre = load i32, ptr %4, align 8
  br label %41

41:                                               ; preds = %33, %.lr.ph.split, %36
  %42 = phi i32 [ %.pre, %36 ], [ %26, %.lr.ph.split ], [ %26, %33 ]
  %.1 = phi ptr [ %40, %36 ], [ %.017, %.lr.ph.split ], [ %.017, %33 ]
  %indvars.iv.next = add nuw nsw i64 %indvars.iv, 1
  %43 = sext i32 %42 to i64
  %44 = icmp slt i64 %indvars.iv.next, %43
  br i1 %44, label %.lr.ph.split, label %._crit_edge, !llvm.loop !12
}